; Function Attrs: mustprogress nounwind uwtable
define hidden void @_ZNK21vadd_mem_masked_1Node4emitEP17C2_MacroAssemblerP13PhaseRegAlloc(ptr noundef nonnull align 8 dereferenceable(104) %0, ptr noundef %1, ptr noundef %2) unnamed_addr #3 align 2 {
  %4 = alloca %class.Address, align 8
  %5 = getelementptr inbounds i8, ptr %0, i64 80
  %6 = load ptr, ptr %5, align 8
  %7 = load ptr, ptr %6, align 8
  %8 = getelementptr inbounds i8, ptr %7, i64 8
  %9 = load ptr, ptr %8, align 8
  %10 = tail call noundef i32 %9(ptr noundef nonnull align 8 dereferenceable(8) %6) #23
  %11 = getelementptr inbounds i8, ptr %0, i64 88
  %12 = load ptr, ptr %11, align 8
  %13 = load ptr, ptr %12, align 8
  %14 = getelementptr inbounds i8, ptr %13, i64 8
  %15 = load ptr, ptr %14, align 8
  %16 = tail call noundef i32 %15(ptr noundef nonnull align 8 dereferenceable(8) %12) #23
  %17 = tail call noundef i32 @_ZN7Matcher22vector_length_in_bytesEPK4Node(ptr noundef nonnull %0) #23
  switch i32 %17, label %20 [
    i32 4, label %_ZL22vector_length_encodingPK4Node.exit
    i32 8, label %_ZL22vector_length_encodingPK4Node.exit
    i32 16, label %_ZL22vector_length_encodingPK4Node.exit
    i32 32, label %18
    i32 64, label %19
  ]

18:                                               ; preds = %3
  br label %_ZL22vector_length_encodingPK4Node.exit

19:                                               ; preds = %3
  br label %_ZL22vector_length_encodingPK4Node.exit

20:                                               ; preds = %3
  %21 = load ptr, ptr @g_assert_poison, align 8
  store i8 88, ptr %21, align 1
  tail call void @_Z28report_should_not_reach_herePKci(ptr noundef nonnull @.str.22, i32 noundef 1228) #24
  unreachable

_ZL22vector_length_encodingPK4Node.exit:          ; preds = %3, %3, %3, %18, %19
  %.0.i.i = phi i32 [ 2, %19 ], [ 1, %18 ], [ 0, %3 ], [ 0, %3 ], [ 0, %3 ]
  %22 = add i32 %10, 2
  %23 = add i32 %16, %22
  %24 = tail call noundef zeroext i8 @_ZN7Matcher25vector_element_basic_typeEPK4Node(ptr noundef nonnull %0) #23
  %25 = load ptr, ptr %0, align 8
  %26 = getelementptr inbounds i8, ptr %25, i64 328
  %27 = load ptr, ptr %26, align 8
  %28 = tail call noundef i32 %27(ptr noundef nonnull align 8 dereferenceable(104) %0) #23
  %29 = getelementptr inbounds i8, ptr %0, i64 96
  %30 = load ptr, ptr %29, align 8
  %31 = load ptr, ptr %30, align 8
  %32 = getelementptr inbounds i8, ptr %31, i64 40
  %33 = load ptr, ptr %32, align 8
  %34 = tail call noundef i32 %33(ptr noundef nonnull align 8 dereferenceable(8) %30, ptr noundef %2, ptr noundef nonnull %0, i32 noundef %23) #23
  %or.cond.i.i = icmp ult i32 %34, 8
  %spec.select.i.i = select i1 %or.cond.i.i, i32 %34, i32 -1
  %35 = load ptr, ptr %5, align 8
  %36 = load ptr, ptr %35, align 8
  %37 = getelementptr inbounds i8, ptr %36, i64 40
  %38 = load ptr, ptr %37, align 8
  %39 = tail call noundef i32 %38(ptr noundef nonnull align 8 dereferenceable(8) %35, ptr noundef %2, ptr noundef nonnull %0, i32 noundef 2) #23
  %or.cond.i.i20 = icmp ult i32 %39, 32
  %spec.select.i.i21 = select i1 %or.cond.i.i20, i32 %39, i32 -1
  %40 = load ptr, ptr %5, align 8
  %41 = load ptr, ptr %40, align 8
  %42 = getelementptr inbounds i8, ptr %41, i64 40
  %43 = load ptr, ptr %42, align 8
  %44 = tail call noundef i32 %43(ptr noundef nonnull align 8 dereferenceable(8) %40, ptr noundef %2, ptr noundef nonnull %0, i32 noundef 2) #23
  %or.cond.i.i22 = icmp ult i32 %44, 32
  %spec.select.i.i23 = select i1 %or.cond.i.i22, i32 %44, i32 -1
  %45 = load ptr, ptr %11, align 8
  %46 = load ptr, ptr %45, align 8
  %47 = getelementptr inbounds i8, ptr %46, i64 104
  %48 = load ptr, ptr %47, align 8
  %49 = tail call noundef i32 %48(ptr noundef nonnull align 8 dereferenceable(8) %45, ptr noundef %2, ptr noundef nonnull %0, i32 noundef %22) #23
  %50 = load ptr, ptr %11, align 8
  %51 = load ptr, ptr %50, align 8
  %52 = getelementptr inbounds i8, ptr %51, i64 112
  %53 = load ptr, ptr %52, align 8
  %54 = tail call noundef i32 %53(ptr noundef nonnull align 8 dereferenceable(8) %50, ptr noundef %2, ptr noundef nonnull %0, i32 noundef %22) #23
  %55 = load ptr, ptr %11, align 8
  %56 = load ptr, ptr %55, align 8
  %57 = getelementptr inbounds i8, ptr %56, i64 120
  %58 = load ptr, ptr %57, align 8
  %59 = tail call noundef i32 %58(ptr noundef nonnull align 8 dereferenceable(8) %55) #23
  %60 = load ptr, ptr %11, align 8
  %61 = load ptr, ptr %60, align 8
  %62 = getelementptr inbounds i8, ptr %61, i64 128
  %63 = load ptr, ptr %62, align 8
  %64 = tail call noundef i32 %63(ptr noundef nonnull align 8 dereferenceable(8) %60, ptr noundef %2, ptr noundef nonnull %0, i32 noundef %22) #23
  %65 = load ptr, ptr %11, align 8
  %66 = load ptr, ptr %65, align 8
  %67 = getelementptr inbounds i8, ptr %66, i64 136
  %68 = load ptr, ptr %67, align 8
  %69 = tail call noundef i32 %68(ptr noundef nonnull align 8 dereferenceable(8) %65) #23
  call void @_ZN7Address8make_rawEiiiiN9relocInfo9relocTypeE(ptr dead_on_unwind nonnull writable sret(%class.Address) align 8 %4, i32 noundef %49, i32 noundef %54, i32 noundef %59, i32 noundef %64, i32 noundef %69) #23
  call void @_ZN17C2_MacroAssembler11evmasked_opEi9BasicType9KRegister11XMMRegisterS2_7Addressbi(ptr noundef nonnull align 8 dereferenceable(40) %1, i32 noundef %28, i8 noundef zeroext %24, i32 %spec.select.i.i, i32 %spec.select.i.i21, i32 %spec.select.i.i23, ptr noundef nonnull %4, i1 noundef zeroext true, i32 noundef %.0.i.i) #23
  ret void
}